Certificate:
    Data:
        Version: 3 (0x2)
        Serial Number:
            1d:fc:5c:08:10:6f:39:41:6b:d3:e5:f2:2e:8a:58:73
        Signature Algorithm: sha256WithRSAEncryption
        Issuer: CN=openVpn
        Validity
            Not Before: Nov  8 04:25:31 2023 GMT
            Not After : Feb 10 04:25:31 2026 GMT
        Subject: CN=vpnclient
        Subject Public Key Info:
            Public Key Algorithm: rsaEncryption
                Public-Key: (2048 bit)
                Modulus:
                    00:c7:50:f3:12:72:02:b5:45:b3:fc:a7:0f:aa:e0:
                    99:8b:95:cc:fe:d6:17:25:b9:bd:0e:5b:eb:80:b7:
                    28:ab:2a:f7:3d:88:83:6f:e6:53:cd:70:08:2f:24:
                    37:03:60:eb:ec:1b:f7:a9:c6:af:ee:4e:6e:d7:df:
                    b1:01:2e:ad:d7:a0:41:c7:11:71:f4:73:9c:50:3d:
                    3e:02:df:58:51:f7:e4:37:97:20:43:b7:6b:8b:a4:
                    3f:8c:b9:3c:99:03:4c:b2:5a:c1:8b:45:32:b1:3d:
                    45:f3:61:10:68:7d:e7:81:af:1c:d5:6b:c1:92:51:
                    1a:d6:6c:f4:25:26:09:50:59:6e:3b:74:55:4f:99:
                    dc:e6:cb:b2:a1:7e:be:61:2d:7d:86:2d:d6:8a:a9:
                    96:ae:9a:06:b1:0a:23:88:38:9a:6b:ea:7b:e4:08:
                    7a:04:f0:d6:db:72:e5:dc:86:9d:08:b3:6b:03:89:
                    04:b8:10:84:d3:54:9d:79:6b:a7:ae:3e:98:64:94:
                    b1:74:28:4e:ea:e4:32:76:33:41:c9:be:dc:b0:a5:
                    32:8f:ea:b3:27:40:9f:29:58:b1:36:d9:20:bf:5a:
                    d7:71:3f:2c:40:dc:02:5c:44:c5:41:f1:b9:fa:be:
                    47:b0:ee:08:56:9e:8c:b1:88:3c:89:24:61:31:fb:
                    88:2d
                Exponent: 65537 (0x10001)
        X509v3 extensions:
            X509v3 Basic Constraints: 
                CA:FALSE
            X509v3 Subject Key Identifier: 
                9D:85:41:5B:3E:4F:42:E6:D4:BA:15:60:8D:BA:15:A9:2A:06:AA:D4
            X509v3 Authority Key Identifier: 
                keyid:FC:4C:5B:D8:73:84:4F:D3:DE:F1:B4:7C:A2:74:52:AD:3E:05:8D:53
                DirName:/CN=openVpn
                serial:66:0B:88:6C:BF:EE:EB:DA:30:DA:50:33:85:3E:0B:1A:19:D1:97:7E
            X509v3 Extended Key Usage: 
                TLS Web Client Authentication
            X509v3 Key Usage: 
                Digital Signature
    Signature Algorithm: sha256WithRSAEncryption
    Signature Value:
        a3:e5:bb:6d:d7:ce:43:6f:a5:34:31:a3:47:4c:19:cd:21:8a:
        38:b5:cf:4d:14:d3:b5:3f:ae:89:d6:a8:fd:dc:59:53:2f:58:
        b4:99:cf:cc:b0:39:72:53:fe:a5:92:19:97:0b:cc:76:53:41:
        5f:69:90:45:52:7e:3c:68:c1:3e:22:c1:1f:b0:f2:e8:d7:c3:
        1d:bd:0e:87:8c:9b:72:58:b2:fb:2d:4a:ef:14:b1:96:99:dc:
        d5:75:40:c2:60:dc:5f:4c:87:a4:c0:b1:14:3e:5e:fe:c7:4a:
        d9:db:59:a3:3e:0a:37:7a:fd:fe:02:2b:a8:c5:d6:a1:ff:fb:
        3d:b3:a5:6f:67:aa:cc:f3:f1:1b:4f:ab:19:e2:61:3e:01:6f:
        80:5f:fb:b4:53:02:12:d3:15:72:24:50:1f:73:42:df:dd:6c:
        dc:5c:3e:9d:22:ed:28:a3:8d:0d:6d:8a:67:d9:eb:e2:22:cc:
        0f:32:e2:7d:2d:7f:45:b3:42:16:38:85:9d:7f:cd:9d:69:e3:
        f8:8c:8f:7d:9a:cb:53:2c:5e:99:03:5c:da:94:c8:5e:14:34:
        17:9d:8b:6a:d4:b4:f6:cb:4c:8a:ca:19:cd:e3:c3:9d:5b:c4:
        72:3e:e6:c7:95:83:77:b9:84:6a:1f:64:c9:6a:60:f3:27:81:
        73:99:01:e7
-----BEGIN CERTIFICATE-----
MIIDTzCCAjegAwIBAgIQHfxcCBBvOUFr0+XyLopYczANBgkqhkiG9w0BAQsFADAS
MRAwDgYDVQQDDAdvcGVuVnBuMB4XDTIzMTEwODA0MjUzMVoXDTI2MDIxMDA0MjUz
MVowFDESMBAGA1UEAwwJdnBuY2xpZW50MIIBIjANBgkqhkiG9w0BAQEFAAOCAQ8A
MIIBCgKCAQEAx1DzEnICtUWz/KcPquCZi5XM/tYXJbm9DlvrgLcoqyr3PYiDb+ZT
zXAILyQ3A2Dr7Bv3qcav7k5u19+xAS6t16BBxxFx9HOcUD0+At9YUffkN5cgQ7dr
i6Q/jLk8mQNMslrBi0UysT1F82EQaH3nga8c1WvBklEa1mz0JSYJUFluO3RVT5nc
5suyoX6+YS19hi3WiqmWrpoGsQojiDiaa+p75Ah6BPDW23Ll3IadCLNrA4kEuBCE
01SdeWunrj6YZJSxdChO6uQydjNByb7csKUyj+qzJ0CfKVixNtkgv1rXcT8sQNwC
XETFQfG5+r5HsO4IVp6MsYg8iSRhMfuILQIDAQABo4GeMIGbMAkGA1UdEwQCMAAw
HQYDVR0OBBYEFJ2FQVs+T0Lm1LoVYI26FakqBqrUME0GA1UdIwRGMESAFPxMW9hz
hE/T3vG0fKJ0Uq0+BY1ToRakFDASMRAwDgYDVQQDDAdvcGVuVnBughRmC4hsv+7r
2jDaUDOFPgsaGdGXfjATBgNVHSUEDDAKBggrBgEFBQcDAjALBgNVHQ8EBAMCB4Aw
DQYJKoZIhvcNAQELBQADggEBAKPlu23XzkNvpTQxo0dMGc0hiji1z00U07U/ronW
qP3cWVMvWLSZz8ywOXJT/qWSGZcLzHZTQV9pkEVSfjxowT4iwR+w8ujXwx29DoeM
m3JYsvstSu8UsZaZ3NV1QMJg3F9Mh6TAsRQ+Xv7HStnbWaM+Cjd6/f4CK6jF1qH/
+z2zpW9nqszz8RtPqxniYT4Bb4Bf+7RTAhLTFXIkUB9zQt/dbNxcPp0i7SijjQ1t
imfZ6+IizA8y4n0tf0WzQhY4hZ1/zZ1p4/iMj32ay1MsXpkDXNqUyF4UNBedi2rU
tPbLTIrKGc3jw51bxHI+5seVg3e5hGofZMlqYPMngXOZAec=
-----END CERTIFICATE-----
